target datalayout = "e-m:e-p270:32:32-p271:32:32-p272:64:64-i64:64-i128:128-f80:128-n8:16:32:64-S128"
target triple = "x86_64-pc-linux-gnu"

%"class.std::vector.45" = type { %"struct.std::_Vector_base.46" }
%"struct.std::_Vector_base.46" = type { %"struct.std::_Vector_base<rocksdb::CompressionType, std::allocator<rocksdb::CompressionType>>::_Vector_impl" }
%"struct.std::_Vector_base<rocksdb::CompressionType, std::allocator<rocksdb::CompressionType>>::_Vector_impl" = type { %"struct.std::_Vector_base<rocksdb::CompressionType, std::allocator<rocksdb::CompressionType>>::_Vector_impl_data" }
%"struct.std::_Vector_base<rocksdb::CompressionType, std::allocator<rocksdb::CompressionType>>::_Vector_impl_data" = type { ptr, ptr, ptr }
%class.anon.177 = type { i8 }

@__dso_handle = external hidden global i8
@_ZZN7rocksdb28GetSupportedDictCompressionsEvE27supported_dict_compressions = internal global %"class.std::vector.45" zeroinitializer, align 8
@_ZGVZN7rocksdb28GetSupportedDictCompressionsEvE27supported_dict_compressions = internal global i64 0, align 8

; Function Attrs: mustprogress uwtable
define noundef nonnull align 8 dereferenceable(24) ptr @_ZN7rocksdb28GetSupportedDictCompressionsEv() #3 personality ptr @__gxx_personality_v0 {
  %1 = alloca %class.anon.177, align 1
  %2 = alloca ptr, align 8
  %3 = alloca i32, align 4
  %4 = load atomic i8, ptr @_ZGVZN7rocksdb28GetSupportedDictCompressionsEvE27supported_dict_compressions acquire, align 8
  %5 = icmp eq i8 %4, 0
  br i1 %5, label %6, label %12, !prof !674

6:                                                ; preds = %0
  %7 = call i32 @__cxa_guard_acquire(ptr @_ZGVZN7rocksdb28GetSupportedDictCompressionsEvE27supported_dict_compressions) #8
  %8 = icmp ne i32 %7, 0
  br i1 %8, label %9, label %12

9:                                                ; preds = %6
  call void @llvm.lifetime.start.p0(i64 1, ptr %1) #8
  invoke void @"_ZZN7rocksdb28GetSupportedDictCompressionsEvENK3$_0clEv"(ptr dead_on_unwind writable sret(%"class.std::vector.45") align 8 @_ZZN7rocksdb28GetSupportedDictCompressionsEvE27supported_dict_compressions, ptr noundef nonnull align 1 dereferenceable(1) %1)
          to label %10 unwind label %13

10:                                               ; preds = %9
  call void @llvm.lifetime.end.p0(i64 1, ptr %1) #8
  %11 = call i32 @__cxa_atexit(ptr @_ZNSt6vectorIN7rocksdb15CompressionTypeESaIS1_EED2Ev, ptr @_ZZN7rocksdb28GetSupportedDictCompressionsEvE27supported_dict_compressions, ptr @__dso_handle) #8
  call void @__cxa_guard_release(ptr @_ZGVZN7rocksdb28GetSupportedDictCompressionsEvE27supported_dict_compressions) #8
  br label %12

12:                                               ; preds = %10, %6, %0
  ret ptr @_ZZN7rocksdb28GetSupportedDictCompressionsEvE27supported_dict_compressions

13:                                               ; preds = %9
  %14 = landingpad { ptr, i32 }
          cleanup
  %15 = extractvalue { ptr, i32 } %14, 0
  store ptr %15, ptr %2, align 8
  %16 = extractvalue { ptr, i32 } %14, 1
  store i32 %16, ptr %3, align 4
  call void @llvm.lifetime.end.p0(i64 1, ptr %1) #8
  call void @__cxa_guard_abort(ptr @_ZGVZN7rocksdb28GetSupportedDictCompressionsEvE27supported_dict_compressions) #8
  br label %17

17:                                               ; preds = %13
  %18 = load ptr, ptr %2, align 8
  %19 = load i32, ptr %3, align 4
  %20 = insertvalue { ptr, i32 } poison, ptr %18, 0
  %21 = insertvalue { ptr, i32 } %20, i32 %19, 1
  resume { ptr, i32 } %21
}